target datalayout = "e-m:e-p270:32:32-p271:32:32-p272:64:64-i64:64-i128:128-f80:128-n8:16:32:64-S128"
target triple = "x86_64-pc-linux-gnu"

; Function Attrs: nounwind uwtable
define i32 @Kit_TruthSemiCanonicize_new(ptr noundef %0, ptr noundef %1, i32 noundef %2, ptr noundef %3) #0 {
  %5 = alloca ptr, align 8
  %6 = alloca ptr, align 8
  %7 = alloca i32, align 4
  %8 = alloca ptr, align 8
  %9 = alloca i32, align 4
  %10 = alloca i64, align 8
  store ptr %0, ptr %5, align 8, !tbaa !32
  store ptr %1, ptr %6, align 8, !tbaa !32
  store i32 %2, ptr %7, align 4, !tbaa !8
  store ptr %3, ptr %8, align 8, !tbaa !35
  call void @llvm.lifetime.start.p0(i64 4, ptr %9) #7
  %11 = load i32, ptr %7, align 4, !tbaa !8
  %12 = icmp slt i32 %11, 6
  br i1 %12, label %13, label %31

13:                                               ; preds = %4
  call void @llvm.lifetime.start.p0(i64 8, ptr %10) #7
  %14 = load ptr, ptr %5, align 8, !tbaa !32
  %15 = getelementptr inbounds i32, ptr %14, i64 0
  %16 = load i32, ptr %15, align 4, !tbaa !8
  %17 = zext i32 %16 to i64
  %18 = shl i64 %17, 32
  %19 = load ptr, ptr %5, align 8, !tbaa !32
  %20 = getelementptr inbounds i32, ptr %19, i64 0
  %21 = load i32, ptr %20, align 4, !tbaa !8
  %22 = zext i32 %21 to i64
  %23 = or i64 %18, %22
  store i64 %23, ptr %10, align 8, !tbaa !10
  %24 = load i32, ptr %7, align 4, !tbaa !8
  %25 = load ptr, ptr %8, align 8, !tbaa !35
  %26 = call i32 @Kit_TruthSemiCanonicize_new_internal(ptr noundef %10, i32 noundef %24, ptr noundef %25)
  store i32 %26, ptr %9, align 4, !tbaa !8
  %27 = load i64, ptr %10, align 8, !tbaa !10
  %28 = trunc i64 %27 to i32
  %29 = load ptr, ptr %5, align 8, !tbaa !32
  %30 = getelementptr inbounds i32, ptr %29, i64 0
  store i32 %28, ptr %30, align 4, !tbaa !8
  call void @llvm.lifetime.end.p0(i64 8, ptr %10) #7
  br label %36

31:                                               ; preds = %4
  %32 = load ptr, ptr %5, align 8, !tbaa !32
  %33 = load i32, ptr %7, align 4, !tbaa !8
  %34 = load ptr, ptr %8, align 8, !tbaa !35
  %35 = call i32 @Kit_TruthSemiCanonicize_new_internal(ptr noundef %32, i32 noundef %33, ptr noundef %34)
  store i32 %35, ptr %9, align 4, !tbaa !8
  br label %36

36:                                               ; preds = %31, %13
  %37 = load i32, ptr %9, align 4, !tbaa !8
  call void @llvm.lifetime.end.p0(i64 4, ptr %9) #7
  ret i32 %37
}