; Function Attrs: nounwind uwtable
define i32 @Kit_TruthSemiCanonicize_new(ptr noundef %0, ptr noundef readnone captures(none) %1, i32 noundef %2, ptr noundef %3) local_unnamed_addr #0 {
  %5 = alloca i64, align 8
  %6 = icmp slt i32 %2, 6
  br i1 %6, label %7, label %15

7:                                                ; preds = %4
  call void @llvm.lifetime.start.p0(i64 8, ptr nonnull %5) #19
  %8 = load i32, ptr %0, align 4, !tbaa !29
  %9 = zext i32 %8 to i64
  %10 = shl nuw i64 %9, 32
  %11 = or disjoint i64 %10, %9
  store i64 %11, ptr %5, align 8, !tbaa !3
  %12 = call i32 @Kit_TruthSemiCanonicize_new_internal(ptr noundef nonnull %5, i32 noundef %2, ptr noundef %3)
  %13 = load i64, ptr %5, align 8, !tbaa !3
  %14 = trunc i64 %13 to i32
  store i32 %14, ptr %0, align 4, !tbaa !29
  call void @llvm.lifetime.end.p0(i64 8, ptr nonnull %5) #19
  br label %17

15:                                               ; preds = %4
  %16 = tail call i32 @Kit_TruthSemiCanonicize_new_internal(ptr noundef %0, i32 noundef %2, ptr noundef %3)
  br label %17

17:                                               ; preds = %15, %7
  %.0 = phi i32 [ %12, %7 ], [ %16, %15 ]
  ret i32 %.0
}